Certificate:
    Data:
        Version: 3 (0x2)
        Serial Number: 1 (0x1)
    Signature Algorithm: sha256WithRSAEncryption
        Issuer: C=US, ST=Unset, L=Unset, O=Unset, CN=www.example.com
        Validity
            Not Before: Feb 10 17:56:13 2015 GMT
            Not After : Feb  7 17:56:13 2025 GMT
        Subject: C=US, ST=Unset, O=Unset, CN=www.example.com
        Subject Public Key Info:
            Public Key Algorithm: rsaEncryption
                Public-Key: (2048 bit)
                Modulus:
                    00:ab:7b:d7:f0:9f:7b:9e:2a:78:3e:fe:25:c0:04:
                    f8:c5:41:c1:7b:52:64:0a:43:1b:08:c6:c5:a9:24:
                    20:83:1a:0a:76:03:f0:58:dc:d9:00:c5:76:42:9f:
                    2a:5d:a9:c8:54:88:6a:7e:b2:5d:e6:19:a0:10:18:
                    f6:84:a2:c1:dd:fb:4d:58:4d:e6:42:91:cd:98:04:
                    09:e8:ec:4d:4c:5d:16:bf:f5:12:41:33:b1:b0:4b:
                    89:a3:99:84:f1:8d:fa:55:ed:bb:99:94:98:6b:b4:
                    c3:6e:f6:1f:73:b9:60:e4:0d:e7:36:9d:4f:48:1f:
                    54:c2:76:90:de:7a:9e:b2:e5:8c:ef:88:d5:44:7e:
                    3a:d6:84:33:39:92:03:8a:2f:8f:04:fa:6f:46:6e:
                    71:25:6f:ee:e7:ac:9e:a6:29:fc:56:c6:ca:a9:70:
                    04:a2:4d:91:d6:6f:44:68:8c:14:ee:dc:2f:0f:c9:
                    d8:c7:51:e6:17:46:c3:2f:e2:ff:19:77:56:ea:5e:
                    d1:aa:1c:cc:ba:3d:65:1e:a4:94:2e:55:31:ab:9b:
                    20:7c:4e:da:a9:17:81:85:fa:79:52:4b:5b:3a:62:
                    c6:48:26:ce:85:c4:61:e3:87:48:9a:aa:18:cd:e5:
                    60:63:b0:15:5e:a4:d4:23:49:49:60:a6:d6:2c:b0:
                    74:73
                Exponent: 65537 (0x10001)
        X509v3 extensions:
            X509v3 Basic Constraints: 
                CA:FALSE
            X509v3 Subject Key Identifier: 
                62:D3:93:88:AE:E0:23:BB:66:50:FD:15:6C:13:9E:46:BC:54:46:EC
            X509v3 Authority Key Identifier: 
                keyid:15:DC:3E:10:F9:21:31:16:77:DC:61:55:3D:3F:06:E9:4D:D0:93:38

    Signature Algorithm: sha256WithRSAEncryption
         35:18:f4:36:cf:7f:62:a4:82:0b:24:a4:83:57:a5:2f:75:42:
         07:50:23:a5:4c:48:80:e8:bb:f1:ab:07:6c:10:9d:08:43:40:
         20:ee:af:24:13:1f:71:b4:6b:d4:32:68:c1:25:17:b4:1f:37:
         36:3f:63:ec:03:da:7b:0d:31:08:d1:9a:ea:ae:b5:7f:57:01:
         e1:54:18:fc:25:43:7b:4f:02:f5:9f:ba:f9:71:b3:be:d9:35:
         75:21:e3:80:e8:b4:1f:98:e5:df:7f:64:71:d9:4b:88:ea:94:
         53:e8:c3:76:6c:48:74:75:2b:5a:96:2a:aa:b7:29:7c:bb:7c:
         88:60:5a:1a:f6:a9:06:d1:06:3e:8b:56:17:1d:3c:7d:0d:f6:
         10:b7:0e:17:06:15:bd:0a:50:70:dd:72:05:a5:41:7b:80:57:
         72:c4:d9:5c:1d:13:bd:e9:e9:d0:f3:26:a3:05:8b:d2:ab:3b:
         d1:55:2d:8e:b0:ef:7f:0e:66:7a:17:81:77:f0:9c:cd:70:b9:
         f7:23:4c:da:3c:ed:a7:0a:fc:12:16:5a:7b:7e:e7:81:49:31:
         73:11:25:8d:71:01:07:9a:df:89:ff:0f:75:2a:a5:6f:75:ae:
         41:b7:df:ae:04:5a:f5:8c:df:57:56:8d:bb:d9:44:91:db:4a:
         b9:5a:ee:5a
-----BEGIN CERTIFICATE-----
MIIDZjCCAk6gAwIBAgIBATANBgkqhkiG9w0BAQsFADBXMQswCQYDVQQGEwJVUzEO
MAwGA1UECAwFVW5zZXQxDjAMBgNVBAcMBVVuc2V0MQ4wDAYDVQQKDAVVbnNldDEY
MBYGA1UEAwwPd3d3LmV4YW1wbGUuY29tMB4XDTE1MDIxMDE3NTYxM1oXDTI1MDIw
NzE3NTYxM1owRzELMAkGA1UEBhMCVVMxDjAMBgNVBAgMBVVuc2V0MQ4wDAYDVQQK
DAVVbnNldDEYMBYGA1UEAwwPd3d3LmV4YW1wbGUuY29tMIIBIjANBgkqhkiG9w0B
AQEFAAOCAQ8AMIIBCgKCAQEAq3vX8J97nip4Pv4lwAT4xUHBe1JkCkMbCMbFqSQg
gxoKdgPwWNzZAMV2Qp8qXanIVIhqfrJd5hmgEBj2hKLB3ftNWE3mQpHNmAQJ6OxN
TF0Wv/USQTOxsEuJo5mE8Y36Ve27mZSYa7TDbvYfc7lg5A3nNp1PSB9UwnaQ3nqe
suWM74jVRH461oQzOZIDii+PBPpvRm5xJW/u56yepin8VsbKqXAEok2R1m9EaIwU
7twvD8nYx1HmF0bDL+L/GXdW6l7RqhzMuj1lHqSULlUxq5sgfE7aqReBhfp5Uktb
OmLGSCbOhcRh44dImqoYzeVgY7AVXqTUI0lJYKbWLLB0cwIDAQABo00wSzAJBgNV
HRMEAjAAMB0GA1UdDgQWBBRi05OIruAju2ZQ/RVsE55GvFRG7DAfBgNVHSMEGDAW
gBQV3D4Q+SExFnfcYVU9PwbpTdCTODANBgkqhkiG9w0BAQsFAAOCAQEANRj0Ns9/
YqSCCySkg1elL3VCB1AjpUxIgOi78asHbBCdCENAIO6vJBMfcbRr1DJowSUXtB83
Nj9j7APaew0xCNGa6q61f1cB4VQY/CVDe08C9Z+6+XGzvtk1dSHjgOi0H5jl339k
cdlLiOqUU+jDdmxIdHUrWpYqqrcpfLt8iGBaGvapBtEGPotWFx08fQ32ELcOFwYV
vQpQcN1yBaVBe4BXcsTZXB0Tvenp0PMmowWL0qs70VUtjrDvfw5meheBd/CczXC5
9yNM2jztpwr8EhZae37ngUkxcxEljXEBB5rfif8PdSqlb3WuQbffrgRa9YzfV1aN
u9lEkdtKuVruWg==
-----END CERTIFICATE-----
